target datalayout = "e-m:e-p270:32:32-p271:32:32-p272:64:64-i64:64-i128:128-f80:128-n8:16:32:64-S128"
target triple = "x86_64-unknown-linux-gnu"

%class.aiMatrix4x4t = type { float, float, float, float, float, float, float, float, float, float, float, float, float, float, float, float }
%class.aiVector3t = type { float, float, float }

; Function Attrs: mustprogress nounwind uwtable
define linkonce_odr hidden void @_ZN12aiMatrix4x4tIfEC2Ev(ptr noundef nonnull align 4 dereferenceable(64) %this) unnamed_addr #0 comdat align 2 {
entry:
  %this.addr = alloca ptr, align 8
  store ptr %this, ptr %this.addr, align 8
  %this1 = load ptr, ptr %this.addr, align 8
  %a1 = getelementptr inbounds %class.aiMatrix4x4t, ptr %this1, i32 0, i32 0
  store float 1.000000e+00, ptr %a1, align 4
  %a2 = getelementptr inbounds %class.aiMatrix4x4t, ptr %this1, i32 0, i32 1
  store float 0.000000e+00, ptr %a2, align 4
  %a3 = getelementptr inbounds %class.aiMatrix4x4t, ptr %this1, i32 0, i32 2
  store float 0.000000e+00, ptr %a3, align 4
  %a4 = getelementptr inbounds %class.aiMatrix4x4t, ptr %this1, i32 0, i32 3
  store float 0.000000e+00, ptr %a4, align 4
  %b1 = getelementptr inbounds %class.aiMatrix4x4t, ptr %this1, i32 0, i32 4
  store float 0.000000e+00, ptr %b1, align 4
  %b2 = getelementptr inbounds %class.aiMatrix4x4t, ptr %this1, i32 0, i32 5
  store float 1.000000e+00, ptr %b2, align 4
  %b3 = getelementptr inbounds %class.aiMatrix4x4t, ptr %this1, i32 0, i32 6
  store float 0.000000e+00, ptr %b3, align 4
  %b4 = getelementptr inbounds %class.aiMatrix4x4t, ptr %this1, i32 0, i32 7
  store float 0.000000e+00, ptr %b4, align 4
  %c1 = getelementptr inbounds %class.aiMatrix4x4t, ptr %this1, i32 0, i32 8
  store float 0.000000e+00, ptr %c1, align 4
  %c2 = getelementptr inbounds %class.aiMatrix4x4t, ptr %this1, i32 0, i32 9
  store float 0.000000e+00, ptr %c2, align 4
  %c3 = getelementptr inbounds %class.aiMatrix4x4t, ptr %this1, i32 0, i32 10
  store float 1.000000e+00, ptr %c3, align 4
  %c4 = getelementptr inbounds %class.aiMatrix4x4t, ptr %this1, i32 0, i32 11
  store float 0.000000e+00, ptr %c4, align 4
  %d1 = getelementptr inbounds %class.aiMatrix4x4t, ptr %this1, i32 0, i32 12
  store float 0.000000e+00, ptr %d1, align 4
  %d2 = getelementptr inbounds %class.aiMatrix4x4t, ptr %this1, i32 0, i32 13
  store float 0.000000e+00, ptr %d2, align 4
  %d3 = getelementptr inbounds %class.aiMatrix4x4t, ptr %this1, i32 0, i32 14
  store float 0.000000e+00, ptr %d3, align 4
  %d4 = getelementptr inbounds %class.aiMatrix4x4t, ptr %this1, i32 0, i32 15
  store float 1.000000e+00, ptr %d4, align 4
  ret void
}

; Function Attrs: mustprogress nounwind uwtable
define linkonce_odr hidden noundef nonnull align 4 dereferenceable(64) ptr @_ZN12aiMatrix4x4tIfE11TranslationERK10aiVector3tIfERS0_(ptr noundef nonnull align 4 dereferenceable(12) %v, ptr noundef nonnull align 4 dereferenceable(64) %out) #0 comdat align 2 {
entry:
  %v.addr = alloca ptr, align 8
  %out.addr = alloca ptr, align 8
  %ref.tmp = alloca %class.aiMatrix4x4t, align 4
  store ptr %v, ptr %v.addr, align 8
  store ptr %out, ptr %out.addr, align 8
  call void @_ZN12aiMatrix4x4tIfEC2Ev(ptr noundef nonnull align 4 dereferenceable(64) %ref.tmp) #3
  %0 = load ptr, ptr %out.addr, align 8
  call void @llvm.memcpy.p0.p0.i64(ptr align 4 %0, ptr align 4 %ref.tmp, i64 64, i1 false)
  %1 = load ptr, ptr %v.addr, align 8
  %x = getelementptr inbounds %class.aiVector3t, ptr %1, i32 0, i32 0
  %2 = load float, ptr %x, align 4
  %3 = load ptr, ptr %out.addr, align 8
  %a4 = getelementptr inbounds %class.aiMatrix4x4t, ptr %3, i32 0, i32 3
  store float %2, ptr %a4, align 4
  %4 = load ptr, ptr %v.addr, align 8
  %y = getelementptr inbounds %class.aiVector3t, ptr %4, i32 0, i32 1
  %5 = load float, ptr %y, align 4
  %6 = load ptr, ptr %out.addr, align 8
  %b4 = getelementptr inbounds %class.aiMatrix4x4t, ptr %6, i32 0, i32 7
  store float %5, ptr %b4, align 4
  %7 = load ptr, ptr %v.addr, align 8
  %z = getelementptr inbounds %class.aiVector3t, ptr %7, i32 0, i32 2
  %8 = load float, ptr %z, align 4
  %9 = load ptr, ptr %out.addr, align 8
  %c4 = getelementptr inbounds %class.aiMatrix4x4t, ptr %9, i32 0, i32 11
  store float %8, ptr %c4, align 4
  %10 = load ptr, ptr %out.addr, align 8
  ret ptr %10
}

; Function Attrs: mustprogress uwtable
define void @aiMatrix4Translation(ptr noundef %mat, ptr noundef %translation) #5 {
entry:
  %mat.addr = alloca ptr, align 8
  %translation.addr = alloca ptr, align 8
  store ptr %mat, ptr %mat.addr, align 8
  store ptr %translation, ptr %translation.addr, align 8
  %0 = load ptr, ptr %translation.addr, align 8
  %1 = load ptr, ptr %mat.addr, align 8
  %call = call noundef nonnull align 4 dereferenceable(64) ptr @_ZN12aiMatrix4x4tIfE11TranslationERK10aiVector3tIfERS0_(ptr noundef nonnull align 4 dereferenceable(12) %0, ptr noundef nonnull align 4 dereferenceable(64) %1)
  ret void
}