; Function Attrs: mustprogress nofree norecurse nosync nounwind willreturn memory(argmem: readwrite) uwtable
define void @aiMatrix4Translation(ptr nocapture noundef writeonly %mat, ptr nocapture noundef readonly %translation) local_unnamed_addr #11 {
entry:
  store float 1.000000e+00, ptr %mat, align 4
  %ref.tmp.sroa.2.0.out.sroa_idx.i = getelementptr inbounds i8, ptr %mat, i64 4
  tail call void @llvm.memset.p0.i64(ptr noundef nonnull align 4 dereferenceable(16) %ref.tmp.sroa.2.0.out.sroa_idx.i, i8 0, i64 16, i1 false)
  %ref.tmp.sroa.3.0.out.sroa_idx.i = getelementptr inbounds i8, ptr %mat, i64 20
  store float 1.000000e+00, ptr %ref.tmp.sroa.3.0.out.sroa_idx.i, align 4
  %ref.tmp.sroa.4.0.out.sroa_idx.i = getelementptr inbounds i8, ptr %mat, i64 24
  tail call void @llvm.memset.p0.i64(ptr noundef nonnull align 4 dereferenceable(16) %ref.tmp.sroa.4.0.out.sroa_idx.i, i8 0, i64 16, i1 false)
  %ref.tmp.sroa.5.0.out.sroa_idx.i = getelementptr inbounds i8, ptr %mat, i64 40
  store float 1.000000e+00, ptr %ref.tmp.sroa.5.0.out.sroa_idx.i, align 4
  %ref.tmp.sroa.6.0.out.sroa_idx.i = getelementptr inbounds i8, ptr %mat, i64 44
  tail call void @llvm.memset.p0.i64(ptr noundef nonnull align 4 dereferenceable(16) %ref.tmp.sroa.6.0.out.sroa_idx.i, i8 0, i64 16, i1 false)
  %ref.tmp.sroa.7.0.out.sroa_idx.i = getelementptr inbounds i8, ptr %mat, i64 60
  store float 1.000000e+00, ptr %ref.tmp.sroa.7.0.out.sroa_idx.i, align 4
  %0 = load float, ptr %translation, align 4
  %a4.i = getelementptr inbounds i8, ptr %mat, i64 12
  store float %0, ptr %a4.i, align 4
  %y.i = getelementptr inbounds i8, ptr %translation, i64 4
  %1 = load float, ptr %y.i, align 4
  %b4.i = getelementptr inbounds i8, ptr %mat, i64 28
  store float %1, ptr %b4.i, align 4
  %z.i = getelementptr inbounds i8, ptr %translation, i64 8
  %2 = load float, ptr %z.i, align 4
  store float %2, ptr %ref.tmp.sroa.6.0.out.sroa_idx.i, align 4
  ret void
}